#include <math.h>
#include <stdio.h>
#include <stdlib.h>
#include <string.h>

int su(int n)
{
	int i,l;
	l=sqrt(n);
	for (i=2;i<=l;i++) if (n%i==0) return(0);
	return(1);
}
void main()
{
	int n,i;
	scanf("%d",&n);
	for (i=3;i<=n/2;i++)
	{
		if (i%2!=0&&(n-i)%2!=0&&su(i)&&su(n-i)) printf("%d %d\n",i,n-i);
	}
}