; ModuleID = 'source-C-CXX/42/11.c'
source_filename = "source-C-CXX/42/11.c"
target datalayout = "e-m:e-p270:32:32-p271:32:32-p272:64:64-i64:64-f80:128-n8:16:32:64-S128"
target triple = "x86_64-pc-linux-gnu"

@.str = private unnamed_addr constant [3 x i8] c"%d\00", align 1
@.str.1 = private unnamed_addr constant [7 x i8] c"%d %d\0A\00", align 1

; Function Attrs: nofree nounwind sspstrong uwtable
define dso_local i32 @su(i32 %0) local_unnamed_addr #0 {
  %2 = sitofp i32 %0 to double
  %3 = tail call double @sqrt(double %2) #4
  %4 = fptosi double %3 to i32
  %5 = icmp slt i32 %4, 2
  br i1 %5, label %13, label %9

6:                                                ; preds = %9
  %7 = add nuw i32 %10, 1
  %8 = icmp eq i32 %10, %4
  br i1 %8, label %13, label %9, !llvm.loop !5

9:                                                ; preds = %1, %6
  %10 = phi i32 [ %7, %6 ], [ 2, %1 ]
  %11 = srem i32 %0, %10
  %12 = icmp eq i32 %11, 0
  br i1 %12, label %13, label %6

13:                                               ; preds = %9, %6, %1
  %14 = phi i32 [ 1, %1 ], [ 1, %6 ], [ 0, %9 ]
  ret i32 %14
}

; Function Attrs: argmemonly mustprogress nofree nosync nounwind willreturn
declare void @llvm.lifetime.start.p0i8(i64 immarg, i8* nocapture) #1

; Function Attrs: mustprogress nofree nounwind willreturn
declare double @sqrt(double) local_unnamed_addr #2

; Function Attrs: argmemonly mustprogress nofree nosync nounwind willreturn
declare void @llvm.lifetime.end.p0i8(i64 immarg, i8* nocapture) #1

; Function Attrs: nofree nounwind sspstrong uwtable
define dso_local void @main() local_unnamed_addr #0 {
  %1 = alloca i32, align 4
  %2 = bitcast i32* %1 to i8*
  call void @llvm.lifetime.start.p0i8(i64 4, i8* nonnull %2) #4
  %3 = call i32 (i8*, ...) @__isoc99_scanf(i8* getelementptr inbounds ([3 x i8], [3 x i8]* @.str, i64 0, i64 0), i32* nonnull %1)
  %4 = load i32, i32* %1, align 4, !tbaa !7
  %5 = icmp slt i32 %4, 6
  br i1 %5, label %50, label %6

6:                                                ; preds = %0, %45
  %7 = phi i32 [ %47, %45 ], [ %4, %0 ]
  %8 = phi i32 [ %46, %45 ], [ 3, %0 ]
  %9 = and i32 %8, 1
  %10 = icmp eq i32 %9, 0
  br i1 %10, label %45, label %11

11:                                               ; preds = %6
  %12 = sub nsw i32 %7, %8
  %13 = and i32 %12, 1
  %14 = icmp eq i32 %13, 0
  br i1 %14, label %45, label %15

15:                                               ; preds = %11
  %16 = sitofp i32 %8 to double
  %17 = call double @sqrt(double %16) #4
  %18 = fptosi double %17 to i32
  %19 = icmp slt i32 %18, 2
  br i1 %19, label %27, label %23

20:                                               ; preds = %23
  %21 = add nuw i32 %24, 1
  %22 = icmp eq i32 %24, %18
  br i1 %22, label %27, label %23, !llvm.loop !5

23:                                               ; preds = %15, %20
  %24 = phi i32 [ %21, %20 ], [ 2, %15 ]
  %25 = urem i32 %8, %24
  %26 = icmp eq i32 %25, 0
  br i1 %26, label %45, label %20

27:                                               ; preds = %20, %15
  %28 = load i32, i32* %1, align 4, !tbaa !7
  %29 = sub nsw i32 %28, %8
  %30 = sitofp i32 %29 to double
  %31 = call double @sqrt(double %30) #4
  %32 = fptosi double %31 to i32
  %33 = icmp slt i32 %32, 2
  br i1 %33, label %41, label %37

34:                                               ; preds = %37
  %35 = add nuw i32 %38, 1
  %36 = icmp eq i32 %38, %32
  br i1 %36, label %41, label %37, !llvm.loop !5

37:                                               ; preds = %27, %34
  %38 = phi i32 [ %35, %34 ], [ 2, %27 ]
  %39 = srem i32 %29, %38
  %40 = icmp eq i32 %39, 0
  br i1 %40, label %45, label %34

41:                                               ; preds = %34, %27
  %42 = load i32, i32* %1, align 4, !tbaa !7
  %43 = sub nsw i32 %42, %8
  %44 = call i32 (i8*, ...) @printf(i8* nonnull dereferenceable(1) getelementptr inbounds ([7 x i8], [7 x i8]* @.str.1, i64 0, i64 0), i32 %8, i32 %43)
  br label %45

45:                                               ; preds = %23, %37, %6, %11, %41
  %46 = add nuw nsw i32 %8, 1
  %47 = load i32, i32* %1, align 4, !tbaa !7
  %48 = sdiv i32 %47, 2
  %49 = icmp slt i32 %8, %48
  br i1 %49, label %6, label %50, !llvm.loop !11

50:                                               ; preds = %45, %0
  call void @llvm.lifetime.end.p0i8(i64 4, i8* nonnull %2) #4
  ret void
}

; Function Attrs: nofree nounwind
declare noundef i32 @__isoc99_scanf(i8* nocapture noundef readonly, ...) local_unnamed_addr #3

; Function Attrs: nofree nounwind
declare noundef i32 @printf(i8* nocapture noundef readonly, ...) local_unnamed_addr #3


!llvm.module.flags = !{!0, !1, !2, !3}
!llvm.ident = !{!4}

!0 = !{i32 1, !"wchar_size", i32 4}
!1 = !{i32 7, !"PIC Level", i32 2}
!2 = !{i32 7, !"PIE Level", i32 2}
!3 = !{i32 7, !"uwtable", i32 1}
!4 = !{!"clang version 13.0.0"}
!5 = distinct !{!5, !6}
!6 = !{!"llvm.loop.mustprogress"}
!7 = !{!8, !8, i64 0}
!8 = !{!"int", !9, i64 0}
!9 = !{!"omnipotent char", !10, i64 0}
!10 = !{!"Simple C/C++ TBAA"}
!11 = distinct !{!11, !6}
